target datalayout = "e-m:e-p270:32:32-p271:32:32-p272:64:64-i64:64-i128:128-f80:128-n8:16:32:64-S128"
target triple = "x86_64-unknown-linux-gnu"

%"class.icu_75::UnicodeString" = type { %"class.icu_75::Replaceable", %"union.icu_75::UnicodeString::StackBufferOrFields" }
%"class.icu_75::Replaceable" = type { %"class.icu_75::UObject" }
%"class.icu_75::UObject" = type { ptr }
%"union.icu_75::UnicodeString::StackBufferOrFields" = type { %struct.anon.0, [32 x i8] }
%struct.anon.0 = type { i16, i32, i32, ptr }
%"class.icu_75::LocaleKey" = type { %"class.icu_75::ICUServiceKey", i32, %"class.icu_75::UnicodeString", %"class.icu_75::UnicodeString", %"class.icu_75::UnicodeString" }
%"class.icu_75::ICUServiceKey" = type { %"class.icu_75::UObject", %"class.icu_75::UnicodeString" }

; Function Attrs: mustprogress nounwind uwtable
define void @_ZN6icu_759LocaleKeyD2Ev(ptr noundef nonnull align 8 dereferenceable(272) %this) unnamed_addr #0 align 2 {
entry:
  %this.addr = alloca ptr, align 8
  store ptr %this, ptr %this.addr, align 8
  %this1 = load ptr, ptr %this.addr, align 8
  store ptr getelementptr inbounds ({ [15 x ptr] }, ptr @_ZTVN6icu_759LocaleKeyE, i32 0, i32 0, i32 2), ptr %this1, align 8
  %_currentID = getelementptr inbounds %"class.icu_75::LocaleKey", ptr %this1, i32 0, i32 4
  call void @_ZN6icu_7513UnicodeStringD1Ev(ptr noundef nonnull align 8 dereferenceable(64) %_currentID) #7
  %_fallbackID = getelementptr inbounds %"class.icu_75::LocaleKey", ptr %this1, i32 0, i32 3
  call void @_ZN6icu_7513UnicodeStringD1Ev(ptr noundef nonnull align 8 dereferenceable(64) %_fallbackID) #7
  %_primaryID = getelementptr inbounds %"class.icu_75::LocaleKey", ptr %this1, i32 0, i32 2
  call void @_ZN6icu_7513UnicodeStringD1Ev(ptr noundef nonnull align 8 dereferenceable(64) %_primaryID) #7
  call void @_ZN6icu_7513ICUServiceKeyD2Ev(ptr noundef nonnull align 8 dereferenceable(72) %this1) #7
  ret void
}