; Function Attrs: mustprogress nounwind uwtable
define void @_ZN6icu_759LocaleKeyD2Ev(ptr noundef nonnull align 8 dereferenceable(272) %this) unnamed_addr #0 align 2 {
entry:
  store ptr getelementptr inbounds ({ [15 x ptr] }, ptr @_ZTVN6icu_759LocaleKeyE, i64 0, i32 0, i64 2), ptr %this, align 8
  %_currentID = getelementptr inbounds i8, ptr %this, i64 208
  tail call void @_ZN6icu_7513UnicodeStringD1Ev(ptr noundef nonnull align 8 dereferenceable(64) %_currentID) #11
  %_fallbackID = getelementptr inbounds i8, ptr %this, i64 144
  tail call void @_ZN6icu_7513UnicodeStringD1Ev(ptr noundef nonnull align 8 dereferenceable(64) %_fallbackID) #11
  %_primaryID = getelementptr inbounds i8, ptr %this, i64 80
  tail call void @_ZN6icu_7513UnicodeStringD1Ev(ptr noundef nonnull align 8 dereferenceable(64) %_primaryID) #11
  tail call void @_ZN6icu_7513ICUServiceKeyD2Ev(ptr noundef nonnull align 8 dereferenceable(72) %this) #11
  ret void
}